(dp1
S'exam_id'
p2
(dp3
S'length'
p4
I512
sS'unique'
p5
I00
sS'sortable'
p6
I2
sS'sql'
p7
S'INTEGER REFERENCES inscription (id) ON DELETE CASCADE  '
p8
sS'notnull'
p9
I00
sS'type'
p10
S'reference inscription'
p11
ssS'id'
p12
(dp13
g4
I512
sg5
I00
sg6
I1
sg7
S'SERIAL PRIMARY KEY'
p14
sg9
I00
sg10
g12
ssS'exam_year'
p15
(dp16
g4
I512
sg5
I00
sg6
I3
sg7
S'DATE'
p17
sg9
I00
sg10
S'date'
p18
ss.